target datalayout = "e-m:e-p270:32:32-p271:32:32-p272:64:64-i64:64-i128:128-f80:128-n8:16:32:64-S128"
target triple = "x86_64-pc-linux-gnu"

@__const.hkdf_test.ikm1 = private unnamed_addr constant [22 x i8] c"\0B\0B\0B\0B\0B\0B\0B\0B\0B\0B\0B\0B\0B\0B\0B\0B\0B\0B\0B\0B\0B\0B", align 16
@__const.hkdf_test.salt1 = private unnamed_addr constant [13 x i8] c"\00\01\02\03\04\05\06\07\08\09\0A\0B\0C", align 1
@__const.hkdf_test.info1 = private unnamed_addr constant [10 x i8] c"\F0\F1\F2\F3\F4\F5\F6\F7\F8\F9", align 1
@__const.hkdf_test.res1 = private unnamed_addr constant [42 x i8] c"\0A\C1\AFp\02\B3\D7a\D1\E5R\98\DA\9D\05\06\B9\AER\05r \A3\06\E0{k\87\E8\DF!\D0\EA\00\03=\E09\84\D3I\18", align 16
@__const.hkdf_test.res2 = private unnamed_addr constant [42 x i8] c"\08Z\01\EA\1B\10\F3i3\06\8BV\EF\A5\AD\81\A4\F1K\82/[\09\15h\A9\CD\D4\F1U\FD\A2\C2.B$x\D3\05\F3\F8\96", align 16
@__const.hkdf_test.res3 = private unnamed_addr constant [42 x i8] c"\8D\A4\E7u\A5c\C1\8Fq_\80*\06<Z1\B8\A1\1F\\^\E1\87\9E\C3EN_<s\8D-\9D \13\95\FA\A4\B6\1A\96\C8", align 16
@__const.hkdf_test.res4 = private unnamed_addr constant [42 x i8] c"<\B2_%\FA\AC\D5z\90COd\D06/*--\0A\90\CF\1AZL]\B0-V\EC\C4\C5\BF4\00r\08\D5\B8\87\18Xe", align 16

; Function Attrs: nounwind uwtable
define dso_local i32 @hkdf_test() #0 {
  %1 = alloca i32, align 4
  %2 = alloca i32, align 4
  %3 = alloca i32, align 4
  %4 = alloca [42 x i8], align 16
  %5 = alloca [22 x i8], align 16
  %6 = alloca [13 x i8], align 1
  %7 = alloca [10 x i8], align 1
  %8 = alloca [42 x i8], align 16
  %9 = alloca [42 x i8], align 16
  %10 = alloca [42 x i8], align 16
  %11 = alloca [42 x i8], align 16
  %12 = alloca i32, align 4
  call void @llvm.lifetime.start.p0(i64 4, ptr %2) #10
  store i32 0, ptr %2, align 4, !tbaa !14
  call void @llvm.lifetime.start.p0(i64 4, ptr %3) #10
  call void @llvm.lifetime.start.p0(i64 42, ptr %4) #10
  call void @llvm.lifetime.start.p0(i64 22, ptr %5) #10
  call void @llvm.memcpy.p0.p0.i64(ptr align 16 %5, ptr align 16 @__const.hkdf_test.ikm1, i64 22, i1 false)
  call void @llvm.lifetime.start.p0(i64 13, ptr %6) #10
  call void @llvm.memcpy.p0.p0.i64(ptr align 1 %6, ptr align 1 @__const.hkdf_test.salt1, i64 13, i1 false)
  call void @llvm.lifetime.start.p0(i64 10, ptr %7) #10
  call void @llvm.memcpy.p0.p0.i64(ptr align 1 %7, ptr align 1 @__const.hkdf_test.info1, i64 10, i1 false)
  call void @llvm.lifetime.start.p0(i64 42, ptr %8) #10
  call void @llvm.memcpy.p0.p0.i64(ptr align 16 %8, ptr align 16 @__const.hkdf_test.res1, i64 42, i1 false)
  call void @llvm.lifetime.start.p0(i64 42, ptr %9) #10
  call void @llvm.memcpy.p0.p0.i64(ptr align 16 %9, ptr align 16 @__const.hkdf_test.res2, i64 42, i1 false)
  call void @llvm.lifetime.start.p0(i64 42, ptr %10) #10
  call void @llvm.memcpy.p0.p0.i64(ptr align 16 %10, ptr align 16 @__const.hkdf_test.res3, i64 42, i1 false)
  call void @llvm.lifetime.start.p0(i64 42, ptr %11) #10
  call void @llvm.memcpy.p0.p0.i64(ptr align 16 %11, ptr align 16 @__const.hkdf_test.res4, i64 42, i1 false)
  br label %13

13:                                               ; preds = %0
  br label %14

14:                                               ; preds = %13
  br label %15

15:                                               ; preds = %14
  %16 = getelementptr inbounds [42 x i8], ptr %4, i64 0, i64 0
  call void @llvm.memset.p0.i64(ptr align 16 %16, i8 0, i64 42, i1 false)
  store i32 42, ptr %3, align 4, !tbaa !14
  %17 = getelementptr inbounds [22 x i8], ptr %5, i64 0, i64 0
  %18 = getelementptr inbounds [42 x i8], ptr %4, i64 0, i64 0
  %19 = load i32, ptr %3, align 4, !tbaa !14
  %20 = call i32 @wc_HKDF(i32 noundef 4, ptr noundef %17, i32 noundef 22, ptr noundef null, i32 noundef 0, ptr noundef null, i32 noundef 0, ptr noundef %18, i32 noundef %19)
  store i32 %20, ptr %2, align 4, !tbaa !14
  %21 = load i32, ptr %2, align 4, !tbaa !14
  %22 = icmp ne i32 %21, 0
  br i1 %22, label %23, label %35

23:                                               ; preds = %15
  %24 = load i32, ptr %2, align 4, !tbaa !14
  %25 = sub nsw i32 0, %24
  %26 = zext i32 %25 to i64
  %27 = and i64 %26, 2047
  %28 = trunc i64 %27 to i32
  %29 = sext i32 %28 to i64
  %30 = mul nsw i64 %29, 100000
  %31 = add nsw i64 27343, %30
  %32 = add nsw i64 %31, 536870912
  %33 = sub nsw i64 0, %32
  %34 = trunc i64 %33 to i32
  store i32 %34, ptr %1, align 4
  store i32 1, ptr %12, align 4
  br label %130

35:                                               ; preds = %15
  %36 = getelementptr inbounds [42 x i8], ptr %4, i64 0, i64 0
  %37 = getelementptr inbounds [42 x i8], ptr %8, i64 0, i64 0
  %38 = load i32, ptr %3, align 4, !tbaa !14
  %39 = sext i32 %38 to i64
  %40 = call i32 @memcmp(ptr noundef %36, ptr noundef %37, i64 noundef %39) #11
  %41 = icmp ne i32 %40, 0
  br i1 %41, label %42, label %43

42:                                               ; preds = %35
  store i32 -27346, ptr %1, align 4
  store i32 1, ptr %12, align 4
  br label %130

43:                                               ; preds = %35
  store i32 42, ptr %3, align 4, !tbaa !14
  %44 = getelementptr inbounds [22 x i8], ptr %5, i64 0, i64 0
  %45 = getelementptr inbounds [13 x i8], ptr %6, i64 0, i64 0
  %46 = getelementptr inbounds [10 x i8], ptr %7, i64 0, i64 0
  %47 = getelementptr inbounds [42 x i8], ptr %4, i64 0, i64 0
  %48 = load i32, ptr %3, align 4, !tbaa !14
  %49 = call i32 @wc_HKDF(i32 noundef 4, ptr noundef %44, i32 noundef 11, ptr noundef %45, i32 noundef 13, ptr noundef %46, i32 noundef 10, ptr noundef %47, i32 noundef %48)
  store i32 %49, ptr %2, align 4, !tbaa !14
  %50 = load i32, ptr %2, align 4, !tbaa !14
  %51 = icmp ne i32 %50, 0
  br i1 %51, label %52, label %64

52:                                               ; preds = %43
  %53 = load i32, ptr %2, align 4, !tbaa !14
  %54 = sub nsw i32 0, %53
  %55 = zext i32 %54 to i64
  %56 = and i64 %55, 2047
  %57 = trunc i64 %56 to i32
  %58 = sext i32 %57 to i64
  %59 = mul nsw i64 %58, 100000
  %60 = add nsw i64 27354, %59
  %61 = add nsw i64 %60, 536870912
  %62 = sub nsw i64 0, %61
  %63 = trunc i64 %62 to i32
  store i32 %63, ptr %1, align 4
  store i32 1, ptr %12, align 4
  br label %130

64:                                               ; preds = %43
  %65 = getelementptr inbounds [42 x i8], ptr %4, i64 0, i64 0
  %66 = getelementptr inbounds [42 x i8], ptr %9, i64 0, i64 0
  %67 = load i32, ptr %3, align 4, !tbaa !14
  %68 = sext i32 %67 to i64
  %69 = call i32 @memcmp(ptr noundef %65, ptr noundef %66, i64 noundef %68) #11
  %70 = icmp ne i32 %69, 0
  br i1 %70, label %71, label %72

71:                                               ; preds = %64
  store i32 -27357, ptr %1, align 4
  store i32 1, ptr %12, align 4
  br label %130

72:                                               ; preds = %64
  %73 = getelementptr inbounds [22 x i8], ptr %5, i64 0, i64 0
  %74 = getelementptr inbounds [42 x i8], ptr %4, i64 0, i64 0
  %75 = load i32, ptr %3, align 4, !tbaa !14
  %76 = call i32 @wc_HKDF(i32 noundef 6, ptr noundef %73, i32 noundef 22, ptr noundef null, i32 noundef 0, ptr noundef null, i32 noundef 0, ptr noundef %74, i32 noundef %75)
  store i32 %76, ptr %2, align 4, !tbaa !14
  %77 = load i32, ptr %2, align 4, !tbaa !14
  %78 = icmp ne i32 %77, 0
  br i1 %78, label %79, label %91

79:                                               ; preds = %72
  %80 = load i32, ptr %2, align 4, !tbaa !14
  %81 = sub nsw i32 0, %80
  %82 = zext i32 %81 to i64
  %83 = and i64 %82, 2047
  %84 = trunc i64 %83 to i32
  %85 = sext i32 %84 to i64
  %86 = mul nsw i64 %85, 100000
  %87 = add nsw i64 27365, %86
  %88 = add nsw i64 %87, 536870912
  %89 = sub nsw i64 0, %88
  %90 = trunc i64 %89 to i32
  store i32 %90, ptr %1, align 4
  store i32 1, ptr %12, align 4
  br label %130

91:                                               ; preds = %72
  %92 = getelementptr inbounds [42 x i8], ptr %4, i64 0, i64 0
  %93 = getelementptr inbounds [42 x i8], ptr %10, i64 0, i64 0
  %94 = load i32, ptr %3, align 4, !tbaa !14
  %95 = sext i32 %94 to i64
  %96 = call i32 @memcmp(ptr noundef %92, ptr noundef %93, i64 noundef %95) #11
  %97 = icmp ne i32 %96, 0
  br i1 %97, label %98, label %99

98:                                               ; preds = %91
  store i32 -27368, ptr %1, align 4
  store i32 1, ptr %12, align 4
  br label %130

99:                                               ; preds = %91
  %100 = getelementptr inbounds [22 x i8], ptr %5, i64 0, i64 0
  %101 = getelementptr inbounds [13 x i8], ptr %6, i64 0, i64 0
  %102 = getelementptr inbounds [10 x i8], ptr %7, i64 0, i64 0
  %103 = getelementptr inbounds [42 x i8], ptr %4, i64 0, i64 0
  %104 = load i32, ptr %3, align 4, !tbaa !14
  %105 = call i32 @wc_HKDF(i32 noundef 6, ptr noundef %100, i32 noundef 22, ptr noundef %101, i32 noundef 13, ptr noundef %102, i32 noundef 10, ptr noundef %103, i32 noundef %104)
  store i32 %105, ptr %2, align 4, !tbaa !14
  %106 = load i32, ptr %2, align 4, !tbaa !14
  %107 = icmp ne i32 %106, 0
  br i1 %107, label %108, label %120

108:                                              ; preds = %99
  %109 = load i32, ptr %2, align 4, !tbaa !14
  %110 = sub nsw i32 0, %109
  %111 = zext i32 %110 to i64
  %112 = and i64 %111, 2047
  %113 = trunc i64 %112 to i32
  %114 = sext i32 %113 to i64
  %115 = mul nsw i64 %114, 100000
  %116 = add nsw i64 27375, %115
  %117 = add nsw i64 %116, 536870912
  %118 = sub nsw i64 0, %117
  %119 = trunc i64 %118 to i32
  store i32 %119, ptr %1, align 4
  store i32 1, ptr %12, align 4
  br label %130

120:                                              ; preds = %99
  %121 = getelementptr inbounds [42 x i8], ptr %4, i64 0, i64 0
  %122 = getelementptr inbounds [42 x i8], ptr %11, i64 0, i64 0
  %123 = load i32, ptr %3, align 4, !tbaa !14
  %124 = sext i32 %123 to i64
  %125 = call i32 @memcmp(ptr noundef %121, ptr noundef %122, i64 noundef %124) #11
  %126 = icmp ne i32 %125, 0
  br i1 %126, label %127, label %128

127:                                              ; preds = %120
  store i32 -27378, ptr %1, align 4
  store i32 1, ptr %12, align 4
  br label %130

128:                                              ; preds = %120
  %129 = load i32, ptr %2, align 4, !tbaa !14
  store i32 %129, ptr %1, align 4
  store i32 1, ptr %12, align 4
  br label %130

130:                                              ; preds = %128, %127, %108, %98, %79, %71, %52, %42, %23
  call void @llvm.lifetime.end.p0(i64 42, ptr %11) #10
  call void @llvm.lifetime.end.p0(i64 42, ptr %10) #10
  call void @llvm.lifetime.end.p0(i64 42, ptr %9) #10
  call void @llvm.lifetime.end.p0(i64 42, ptr %8) #10
  call void @llvm.lifetime.end.p0(i64 10, ptr %7) #10
  call void @llvm.lifetime.end.p0(i64 13, ptr %6) #10
  call void @llvm.lifetime.end.p0(i64 22, ptr %5) #10
  call void @llvm.lifetime.end.p0(i64 42, ptr %4) #10
  call void @llvm.lifetime.end.p0(i64 4, ptr %3) #10
  call void @llvm.lifetime.end.p0(i64 4, ptr %2) #10
  %131 = load i32, ptr %1, align 4
  ret i32 %131
}