; Function Attrs: nounwind uwtable
define dso_local range(i32 -741598287, 1) i32 @hkdf_test() local_unnamed_addr #0 {
  %1 = alloca [42 x i8], align 16
  %2 = alloca [22 x i8], align 16
  %3 = alloca [13 x i8], align 1
  %4 = alloca [10 x i8], align 1
  call void @llvm.lifetime.start.p0(i64 42, ptr nonnull %1) #19
  call void @llvm.lifetime.start.p0(i64 22, ptr nonnull %2) #19
  call void @llvm.memset.p0.i64(ptr noundef nonnull align 16 dereferenceable(22) %2, i8 11, i64 22, i1 false)
  call void @llvm.lifetime.start.p0(i64 13, ptr nonnull %3) #19
  call void @llvm.memcpy.p0.p0.i64(ptr noundef nonnull align 1 dereferenceable(13) %3, ptr noundef nonnull align 1 dereferenceable(13) @__const.hkdf_test.salt1, i64 13, i1 false)
  call void @llvm.lifetime.start.p0(i64 10, ptr nonnull %4) #19
  call void @llvm.memcpy.p0.p0.i64(ptr noundef nonnull align 1 dereferenceable(10) %4, ptr noundef nonnull align 1 dereferenceable(10) @__const.hkdf_test.info1, i64 10, i1 false)
  call void @llvm.memset.p0.i64(ptr noundef nonnull align 16 dereferenceable(42) %1, i8 0, i64 42, i1 false)
  %5 = call i32 @wc_HKDF(i32 noundef 4, ptr noundef nonnull %2, i32 noundef 22, ptr noundef null, i32 noundef 0, ptr noundef null, i32 noundef 0, ptr noundef nonnull %1, i32 noundef 42) #19
  %.not = icmp eq i32 %5, 0
  br i1 %.not, label %10, label %6

6:                                                ; preds = %0
  %7 = sub nsw i32 0, %5
  %8 = and i32 %7, 2047
  %narrow.neg42 = mul nsw i32 %8, -100000
  %9 = add nsw i32 %narrow.neg42, -536898255
  br label %32

10:                                               ; preds = %0
  %bcmp = call i32 @bcmp(ptr noundef nonnull dereferenceable(42) %1, ptr noundef nonnull dereferenceable(42) @__const.hkdf_test.res1, i64 42)
  %.not22 = icmp eq i32 %bcmp, 0
  br i1 %.not22, label %11, label %32

11:                                               ; preds = %10
  %12 = call i32 @wc_HKDF(i32 noundef 4, ptr noundef nonnull %2, i32 noundef 11, ptr noundef nonnull %3, i32 noundef 13, ptr noundef nonnull %4, i32 noundef 10, ptr noundef nonnull %1, i32 noundef 42) #19
  %.not23 = icmp eq i32 %12, 0
  br i1 %.not23, label %17, label %13

13:                                               ; preds = %11
  %14 = sub nsw i32 0, %12
  %15 = and i32 %14, 2047
  %narrow.neg39 = mul nsw i32 %15, -100000
  %16 = add nsw i32 %narrow.neg39, -536898266
  br label %32

17:                                               ; preds = %11
  %bcmp24 = call i32 @bcmp(ptr noundef nonnull dereferenceable(42) %1, ptr noundef nonnull dereferenceable(42) @__const.hkdf_test.res2, i64 42)
  %.not25 = icmp eq i32 %bcmp24, 0
  br i1 %.not25, label %18, label %32

18:                                               ; preds = %17
  %19 = call i32 @wc_HKDF(i32 noundef 6, ptr noundef nonnull %2, i32 noundef 22, ptr noundef null, i32 noundef 0, ptr noundef null, i32 noundef 0, ptr noundef nonnull %1, i32 noundef 42) #19
  %.not26 = icmp eq i32 %19, 0
  br i1 %.not26, label %24, label %20

20:                                               ; preds = %18
  %21 = sub nsw i32 0, %19
  %22 = and i32 %21, 2047
  %narrow.neg36 = mul nsw i32 %22, -100000
  %23 = add nsw i32 %narrow.neg36, -536898277
  br label %32

24:                                               ; preds = %18
  %bcmp27 = call i32 @bcmp(ptr noundef nonnull dereferenceable(42) %1, ptr noundef nonnull dereferenceable(42) @__const.hkdf_test.res3, i64 42)
  %.not28 = icmp eq i32 %bcmp27, 0
  br i1 %.not28, label %25, label %32

25:                                               ; preds = %24
  %26 = call i32 @wc_HKDF(i32 noundef 6, ptr noundef nonnull %2, i32 noundef 22, ptr noundef nonnull %3, i32 noundef 13, ptr noundef nonnull %4, i32 noundef 10, ptr noundef nonnull %1, i32 noundef 42) #19
  %.not29 = icmp eq i32 %26, 0
  br i1 %.not29, label %31, label %27

27:                                               ; preds = %25
  %28 = sub nsw i32 0, %26
  %29 = and i32 %28, 2047
  %narrow.neg = mul nsw i32 %29, -100000
  %30 = add nsw i32 %narrow.neg, -536898287
  br label %32

31:                                               ; preds = %25
  %bcmp30 = call i32 @bcmp(ptr noundef nonnull dereferenceable(42) %1, ptr noundef nonnull dereferenceable(42) @__const.hkdf_test.res4, i64 42)
  %.not31 = icmp eq i32 %bcmp30, 0
  %. = select i1 %.not31, i32 0, i32 -27378
  br label %32

32:                                               ; preds = %31, %24, %17, %10, %27, %20, %13, %6
  %.0 = phi i32 [ %9, %6 ], [ %16, %13 ], [ %23, %20 ], [ %30, %27 ], [ -27346, %10 ], [ -27357, %17 ], [ -27368, %24 ], [ %., %31 ]
  call void @llvm.lifetime.end.p0(i64 10, ptr nonnull %4) #19
  call void @llvm.lifetime.end.p0(i64 13, ptr nonnull %3) #19
  call void @llvm.lifetime.end.p0(i64 22, ptr nonnull %2) #19
  call void @llvm.lifetime.end.p0(i64 42, ptr nonnull %1) #19
  ret i32 %.0
}